target datalayout = "e-m:e-p270:32:32-p271:32:32-p272:64:64-i64:64-i128:128-f80:128-n8:16:32:64-S128"
target triple = "x86_64-unknown-linux-gnu"

%"struct.llvh::itanium_demangle::Db" = type { ptr, ptr, %"class.llvh::itanium_demangle::PODSmallVector", %"class.llvh::itanium_demangle::PODSmallVector", %"class.llvh::itanium_demangle::PODSmallVector.0", %"class.llvh::itanium_demangle::PODSmallVector.1", ptr, ptr, i8, i8, i8, [13 x i8], %"class.(anonymous namespace)::DefaultAllocator" }
%"class.llvh::itanium_demangle::PODSmallVector" = type { ptr, ptr, ptr, [32 x ptr] }
%"class.llvh::itanium_demangle::PODSmallVector.0" = type { ptr, ptr, ptr, [8 x ptr] }
%"class.llvh::itanium_demangle::PODSmallVector.1" = type { ptr, ptr, ptr, [4 x ptr] }
%"class.(anonymous namespace)::DefaultAllocator" = type { %"class.(anonymous namespace)::BumpPointerAllocator" }
%"class.(anonymous namespace)::BumpPointerAllocator" = type { [4096 x i8], ptr, [8 x i8] }
%class.StringView = type { ptr, ptr }

; Function Attrs: mustprogress nounwind uwtable
define linkonce_odr hidden void @_ZN10StringViewC2EPKcS1_(ptr noundef nonnull align 8 dereferenceable(16) %this, ptr noundef %First_, ptr noundef %Last_) unnamed_addr #0 comdat align 2 {
entry:
  %this.addr = alloca ptr, align 8
  %First_.addr = alloca ptr, align 8
  %Last_.addr = alloca ptr, align 8
  store ptr %this, ptr %this.addr, align 8
  store ptr %First_, ptr %First_.addr, align 8
  store ptr %Last_, ptr %Last_.addr, align 8
  %this1 = load ptr, ptr %this.addr, align 8
  %First = getelementptr inbounds %class.StringView, ptr %this1, i32 0, i32 0
  %0 = load ptr, ptr %First_.addr, align 8
  store ptr %0, ptr %First, align 8
  %Last = getelementptr inbounds %class.StringView, ptr %this1, i32 0, i32 1
  %1 = load ptr, ptr %Last_.addr, align 8
  store ptr %1, ptr %Last, align 8
  ret void
}

; Function Attrs: mustprogress nounwind uwtable
define linkonce_odr hidden void @_ZN10StringViewC2Ev(ptr noundef nonnull align 8 dereferenceable(16) %this) unnamed_addr #0 comdat align 2 {
entry:
  %this.addr = alloca ptr, align 8
  store ptr %this, ptr %this.addr, align 8
  %this1 = load ptr, ptr %this.addr, align 8
  %First = getelementptr inbounds %class.StringView, ptr %this1, i32 0, i32 0
  store ptr null, ptr %First, align 8
  %Last = getelementptr inbounds %class.StringView, ptr %this1, i32 0, i32 1
  store ptr null, ptr %Last, align 8
  ret void
}

; Function Attrs: mustprogress nounwind uwtable
define internal noundef i64 @_ZNK4llvh16itanium_demangle2DbIN12_GLOBAL__N_116DefaultAllocatorEE7numLeftEv(ptr noundef nonnull align 16 dereferenceable(4864) %this) #0 align 2 {
entry:
  %this.addr = alloca ptr, align 8
  store ptr %this, ptr %this.addr, align 8
  %this1 = load ptr, ptr %this.addr, align 8
  %Last = getelementptr inbounds %"struct.llvh::itanium_demangle::Db", ptr %this1, i32 0, i32 1
  %0 = load ptr, ptr %Last, align 8
  %First = getelementptr inbounds %"struct.llvh::itanium_demangle::Db", ptr %this1, i32 0, i32 0
  %1 = load ptr, ptr %First, align 16
  %sub.ptr.lhs.cast = ptrtoint ptr %0 to i64
  %sub.ptr.rhs.cast = ptrtoint ptr %1 to i64
  %sub.ptr.sub = sub i64 %sub.ptr.lhs.cast, %sub.ptr.rhs.cast
  ret i64 %sub.ptr.sub
}

; Function Attrs: mustprogress nounwind uwtable
define linkonce_odr hidden noundef zeroext i1 @_ZNK10StringView5emptyEv(ptr noundef nonnull align 8 dereferenceable(16) %this) #0 comdat align 2 {
entry:
  %this.addr = alloca ptr, align 8
  store ptr %this, ptr %this.addr, align 8
  %this1 = load ptr, ptr %this.addr, align 8
  %First = getelementptr inbounds %class.StringView, ptr %this1, i32 0, i32 0
  %0 = load ptr, ptr %First, align 8
  %Last = getelementptr inbounds %class.StringView, ptr %this1, i32 0, i32 1
  %1 = load ptr, ptr %Last, align 8
  %cmp = icmp eq ptr %0, %1
  ret i1 %cmp
}

; Function Attrs: mustprogress nounwind uwtable
define internal { ptr, ptr } @_ZN4llvh16itanium_demangle2DbIN12_GLOBAL__N_116DefaultAllocatorEE11parseNumberEb(ptr noundef nonnull align 16 dereferenceable(4864) %this, i1 noundef zeroext %AllowNegative) #0 align 2 {
entry:
  %retval = alloca %class.StringView, align 8
  %this.addr = alloca ptr, align 8
  %AllowNegative.addr = alloca i8, align 1
  %Tmp = alloca ptr, align 8
  store ptr %this, ptr %this.addr, align 8
  %frombool = zext i1 %AllowNegative to i8
  store i8 %frombool, ptr %AllowNegative.addr, align 1
  %this1 = load ptr, ptr %this.addr, align 8
  %First = getelementptr inbounds %"struct.llvh::itanium_demangle::Db", ptr %this1, i32 0, i32 0
  %0 = load ptr, ptr %First, align 16
  store ptr %0, ptr %Tmp, align 8
  %1 = load i8, ptr %AllowNegative.addr, align 1
  %tobool = trunc i8 %1 to i1
  br i1 %tobool, label %if.then, label %if.end

if.then:                                          ; preds = %entry
  %call = call noundef zeroext i1 @_ZN4llvh16itanium_demangle2DbIN12_GLOBAL__N_116DefaultAllocatorEE9consumeIfEc(ptr noundef nonnull align 16 dereferenceable(4864) %this1, i8 noundef signext 110)
  br label %if.end

if.end:                                           ; preds = %if.then, %entry
  %call2 = call noundef i64 @_ZNK4llvh16itanium_demangle2DbIN12_GLOBAL__N_116DefaultAllocatorEE7numLeftEv(ptr noundef nonnull align 16 dereferenceable(4864) %this1)
  %cmp = icmp eq i64 %call2, 0
  br i1 %cmp, label %if.then6, label %lor.lhs.false

lor.lhs.false:                                    ; preds = %if.end
  %First3 = getelementptr inbounds %"struct.llvh::itanium_demangle::Db", ptr %this1, i32 0, i32 0
  %2 = load ptr, ptr %First3, align 16
  %3 = load i8, ptr %2, align 1
  %conv = sext i8 %3 to i32
  %call4 = call i32 @isdigit(i32 noundef %conv) #12
  %tobool5 = icmp ne i32 %call4, 0
  br i1 %tobool5, label %if.end7, label %if.then6

if.then6:                                         ; preds = %lor.lhs.false, %if.end
  call void @_ZN10StringViewC2Ev(ptr noundef nonnull align 8 dereferenceable(16) %retval)
  br label %return

if.end7:                                          ; preds = %lor.lhs.false
  br label %while.cond

while.cond:                                       ; preds = %while.body, %if.end7
  %call8 = call noundef i64 @_ZNK4llvh16itanium_demangle2DbIN12_GLOBAL__N_116DefaultAllocatorEE7numLeftEv(ptr noundef nonnull align 16 dereferenceable(4864) %this1)
  %cmp9 = icmp ne i64 %call8, 0
  br i1 %cmp9, label %land.rhs, label %land.end

land.rhs:                                         ; preds = %while.cond
  %First10 = getelementptr inbounds %"struct.llvh::itanium_demangle::Db", ptr %this1, i32 0, i32 0
  %4 = load ptr, ptr %First10, align 16
  %5 = load i8, ptr %4, align 1
  %conv11 = sext i8 %5 to i32
  %call12 = call i32 @isdigit(i32 noundef %conv11) #12
  %tobool13 = icmp ne i32 %call12, 0
  br label %land.end

land.end:                                         ; preds = %land.rhs, %while.cond
  %6 = phi i1 [ false, %while.cond ], [ %tobool13, %land.rhs ]
  br i1 %6, label %while.body, label %while.end

while.body:                                       ; preds = %land.end
  %First14 = getelementptr inbounds %"struct.llvh::itanium_demangle::Db", ptr %this1, i32 0, i32 0
  %7 = load ptr, ptr %First14, align 16
  %incdec.ptr = getelementptr inbounds i8, ptr %7, i32 1
  store ptr %incdec.ptr, ptr %First14, align 16
  br label %while.cond, !llvm.loop !14

while.end:                                        ; preds = %land.end
  %8 = load ptr, ptr %Tmp, align 8
  %First15 = getelementptr inbounds %"struct.llvh::itanium_demangle::Db", ptr %this1, i32 0, i32 0
  %9 = load ptr, ptr %First15, align 16
  call void @_ZN10StringViewC2EPKcS1_(ptr noundef nonnull align 8 dereferenceable(16) %retval, ptr noundef %8, ptr noundef %9)
  br label %return

return:                                           ; preds = %while.end, %if.then6
  %10 = load { ptr, ptr }, ptr %retval, align 8
  ret { ptr, ptr } %10
}

; Function Attrs: mustprogress nounwind uwtable
define internal noundef zeroext i1 @_ZN4llvh16itanium_demangle2DbIN12_GLOBAL__N_116DefaultAllocatorEE9consumeIfEc(ptr noundef nonnull align 16 dereferenceable(4864) %this, i8 noundef signext %C) #0 align 2 {
entry:
  %retval = alloca i1, align 1
  %this.addr = alloca ptr, align 8
  %C.addr = alloca i8, align 1
  store ptr %this, ptr %this.addr, align 8
  store i8 %C, ptr %C.addr, align 1
  %this1 = load ptr, ptr %this.addr, align 8
  %First = getelementptr inbounds %"struct.llvh::itanium_demangle::Db", ptr %this1, i32 0, i32 0
  %0 = load ptr, ptr %First, align 16
  %Last = getelementptr inbounds %"struct.llvh::itanium_demangle::Db", ptr %this1, i32 0, i32 1
  %1 = load ptr, ptr %Last, align 8
  %cmp = icmp ne ptr %0, %1
  br i1 %cmp, label %land.lhs.true, label %if.end

land.lhs.true:                                    ; preds = %entry
  %First2 = getelementptr inbounds %"struct.llvh::itanium_demangle::Db", ptr %this1, i32 0, i32 0
  %2 = load ptr, ptr %First2, align 16
  %3 = load i8, ptr %2, align 1
  %conv = sext i8 %3 to i32
  %4 = load i8, ptr %C.addr, align 1
  %conv3 = sext i8 %4 to i32
  %cmp4 = icmp eq i32 %conv, %conv3
  br i1 %cmp4, label %if.then, label %if.end

if.then:                                          ; preds = %land.lhs.true
  %First5 = getelementptr inbounds %"struct.llvh::itanium_demangle::Db", ptr %this1, i32 0, i32 0
  %5 = load ptr, ptr %First5, align 16
  %incdec.ptr = getelementptr inbounds i8, ptr %5, i32 1
  store ptr %incdec.ptr, ptr %First5, align 16
  store i1 true, ptr %retval, align 1
  br label %return

if.end:                                           ; preds = %land.lhs.true, %entry
  store i1 false, ptr %retval, align 1
  br label %return

return:                                           ; preds = %if.end, %if.then
  %6 = load i1, ptr %retval, align 1
  ret i1 %6
}

; Function Attrs: mustprogress nounwind uwtable
define internal noundef zeroext i1 @_ZN4llvh16itanium_demangle2DbIN12_GLOBAL__N_116DefaultAllocatorEE15parseCallOffsetEv(ptr noundef nonnull align 16 dereferenceable(4864) %this) #0 align 2 {
entry:
  %retval = alloca i1, align 1
  %this.addr = alloca ptr, align 8
  %ref.tmp = alloca %class.StringView, align 8
  %ref.tmp7 = alloca %class.StringView, align 8
  %ref.tmp12 = alloca %class.StringView, align 8
  store ptr %this, ptr %this.addr, align 8
  %this1 = load ptr, ptr %this.addr, align 8
  %call = call noundef zeroext i1 @_ZN4llvh16itanium_demangle2DbIN12_GLOBAL__N_116DefaultAllocatorEE9consumeIfEc(ptr noundef nonnull align 16 dereferenceable(4864) %this1, i8 noundef signext 104)
  br i1 %call, label %if.then, label %if.end

if.then:                                          ; preds = %entry
  %call2 = call { ptr, ptr } @_ZN4llvh16itanium_demangle2DbIN12_GLOBAL__N_116DefaultAllocatorEE11parseNumberEb(ptr noundef nonnull align 16 dereferenceable(4864) %this1, i1 noundef zeroext true)
  %0 = getelementptr inbounds { ptr, ptr }, ptr %ref.tmp, i32 0, i32 0
  %1 = extractvalue { ptr, ptr } %call2, 0
  store ptr %1, ptr %0, align 8
  %2 = getelementptr inbounds { ptr, ptr }, ptr %ref.tmp, i32 0, i32 1
  %3 = extractvalue { ptr, ptr } %call2, 1
  store ptr %3, ptr %2, align 8
  %call3 = call noundef zeroext i1 @_ZNK10StringView5emptyEv(ptr noundef nonnull align 8 dereferenceable(16) %ref.tmp)
  br i1 %call3, label %lor.end, label %lor.rhs

lor.rhs:                                          ; preds = %if.then
  %call4 = call noundef zeroext i1 @_ZN4llvh16itanium_demangle2DbIN12_GLOBAL__N_116DefaultAllocatorEE9consumeIfEc(ptr noundef nonnull align 16 dereferenceable(4864) %this1, i8 noundef signext 95)
  %lnot = xor i1 %call4, true
  br label %lor.end

lor.end:                                          ; preds = %lor.rhs, %if.then
  %4 = phi i1 [ true, %if.then ], [ %lnot, %lor.rhs ]
  store i1 %4, ptr %retval, align 1
  br label %return

if.end:                                           ; preds = %entry
  %call5 = call noundef zeroext i1 @_ZN4llvh16itanium_demangle2DbIN12_GLOBAL__N_116DefaultAllocatorEE9consumeIfEc(ptr noundef nonnull align 16 dereferenceable(4864) %this1, i8 noundef signext 118)
  br i1 %call5, label %if.then6, label %if.end19

if.then6:                                         ; preds = %if.end
  %call8 = call { ptr, ptr } @_ZN4llvh16itanium_demangle2DbIN12_GLOBAL__N_116DefaultAllocatorEE11parseNumberEb(ptr noundef nonnull align 16 dereferenceable(4864) %this1, i1 noundef zeroext true)
  %5 = getelementptr inbounds { ptr, ptr }, ptr %ref.tmp7, i32 0, i32 0
  %6 = extractvalue { ptr, ptr } %call8, 0
  store ptr %6, ptr %5, align 8
  %7 = getelementptr inbounds { ptr, ptr }, ptr %ref.tmp7, i32 0, i32 1
  %8 = extractvalue { ptr, ptr } %call8, 1
  store ptr %8, ptr %7, align 8
  %call9 = call noundef zeroext i1 @_ZNK10StringView5emptyEv(ptr noundef nonnull align 8 dereferenceable(16) %ref.tmp7)
  br i1 %call9, label %lor.end18, label %lor.lhs.false

lor.lhs.false:                                    ; preds = %if.then6
  %call10 = call noundef zeroext i1 @_ZN4llvh16itanium_demangle2DbIN12_GLOBAL__N_116DefaultAllocatorEE9consumeIfEc(ptr noundef nonnull align 16 dereferenceable(4864) %this1, i8 noundef signext 95)
  br i1 %call10, label %lor.lhs.false11, label %lor.end18

lor.lhs.false11:                                  ; preds = %lor.lhs.false
  %call13 = call { ptr, ptr } @_ZN4llvh16itanium_demangle2DbIN12_GLOBAL__N_116DefaultAllocatorEE11parseNumberEb(ptr noundef nonnull align 16 dereferenceable(4864) %this1, i1 noundef zeroext true)
  %9 = getelementptr inbounds { ptr, ptr }, ptr %ref.tmp12, i32 0, i32 0
  %10 = extractvalue { ptr, ptr } %call13, 0
  store ptr %10, ptr %9, align 8
  %11 = getelementptr inbounds { ptr, ptr }, ptr %ref.tmp12, i32 0, i32 1
  %12 = extractvalue { ptr, ptr } %call13, 1
  store ptr %12, ptr %11, align 8
  %call14 = call noundef zeroext i1 @_ZNK10StringView5emptyEv(ptr noundef nonnull align 8 dereferenceable(16) %ref.tmp12)
  br i1 %call14, label %lor.end18, label %lor.rhs15

lor.rhs15:                                        ; preds = %lor.lhs.false11
  %call16 = call noundef zeroext i1 @_ZN4llvh16itanium_demangle2DbIN12_GLOBAL__N_116DefaultAllocatorEE9consumeIfEc(ptr noundef nonnull align 16 dereferenceable(4864) %this1, i8 noundef signext 95)
  %lnot17 = xor i1 %call16, true
  br label %lor.end18

lor.end18:                                        ; preds = %lor.rhs15, %lor.lhs.false11, %lor.lhs.false, %if.then6
  %13 = phi i1 [ true, %lor.lhs.false11 ], [ true, %lor.lhs.false ], [ true, %if.then6 ], [ %lnot17, %lor.rhs15 ]
  store i1 %13, ptr %retval, align 1
  br label %return

if.end19:                                         ; preds = %if.end
  store i1 true, ptr %retval, align 1
  br label %return

return:                                           ; preds = %if.end19, %lor.end18, %lor.end
  %14 = load i1, ptr %retval, align 1
  ret i1 %14
}