; Function Attrs: mustprogress nofree norecurse nosync nounwind memory(read, argmem: readwrite, inaccessiblemem: none) uwtable
define internal fastcc noundef zeroext i1 @_ZN4llvh16itanium_demangle2DbIN12_GLOBAL__N_116DefaultAllocatorEE15parseCallOffsetEv(ptr nocapture noundef nonnull align 16 dereferenceable(4864) %this) unnamed_addr #11 align 2 {
entry:
  %0 = load ptr, ptr %this, align 16
  %Last.i = getelementptr inbounds i8, ptr %this, i64 8
  %1 = load ptr, ptr %Last.i, align 8
  %cmp.not.i = icmp eq ptr %0, %1
  br i1 %cmp.not.i, label %return, label %land.lhs.true.i

land.lhs.true.i:                                  ; preds = %entry
  %2 = load i8, ptr %0, align 1
  %cmp4.i = icmp eq i8 %2, 104
  br i1 %cmp4.i, label %if.then, label %land.lhs.true.i14

if.then:                                          ; preds = %land.lhs.true.i
  %incdec.ptr.i = getelementptr inbounds i8, ptr %0, i64 1
  store ptr %incdec.ptr.i, ptr %this, align 16
  %cmp.not.i.i.not = icmp eq ptr %incdec.ptr.i, %1
  br i1 %cmp.not.i.i.not, label %return, label %land.lhs.true.i.i

land.lhs.true.i.i:                                ; preds = %if.then
  %3 = load i8, ptr %incdec.ptr.i, align 1
  %cmp4.i.i = icmp eq i8 %3, 110
  br i1 %cmp4.i.i, label %if.then.i.i, label %if.end.i

if.then.i.i:                                      ; preds = %land.lhs.true.i.i
  %incdec.ptr.i.i = getelementptr inbounds i8, ptr %0, i64 2
  store ptr %incdec.ptr.i.i, ptr %this, align 16
  br label %if.end.i

if.end.i:                                         ; preds = %if.then.i.i, %land.lhs.true.i.i
  %4 = phi ptr [ %incdec.ptr.i.i, %if.then.i.i ], [ %incdec.ptr.i, %land.lhs.true.i.i ]
  %cmp.i = icmp eq ptr %1, %4
  br i1 %cmp.i, label %return, label %lor.lhs.false.i

lor.lhs.false.i:                                  ; preds = %if.end.i
  %5 = load i8, ptr %4, align 1
  %conv.i = sext i8 %5 to i32
  %isdigittmp.i = add nsw i32 %conv.i, -48
  %isdigit.i = icmp ult i32 %isdigittmp.i, 10
  br i1 %isdigit.i, label %land.rhs.i, label %return

land.rhs.i:                                       ; preds = %lor.lhs.false.i, %while.body.i
  %6 = phi ptr [ %incdec.ptr.i1, %while.body.i ], [ %4, %lor.lhs.false.i ]
  %7 = load i8, ptr %6, align 1
  %conv11.i = sext i8 %7 to i32
  %isdigittmp1.i = add nsw i32 %conv11.i, -48
  %isdigit2.i = icmp ult i32 %isdigittmp1.i, 10
  br i1 %isdigit2.i, label %while.body.i, label %_ZN4llvh16itanium_demangle2DbIN12_GLOBAL__N_116DefaultAllocatorEE11parseNumberEb.exit

while.body.i:                                     ; preds = %land.rhs.i
  %incdec.ptr.i1 = getelementptr inbounds i8, ptr %6, i64 1
  store ptr %incdec.ptr.i1, ptr %this, align 16
  %cmp9.not.i = icmp eq ptr %1, %incdec.ptr.i1
  br i1 %cmp9.not.i, label %_ZN4llvh16itanium_demangle2DbIN12_GLOBAL__N_116DefaultAllocatorEE11parseNumberEb.exit, label %land.rhs.i, !llvm.loop !8

_ZN4llvh16itanium_demangle2DbIN12_GLOBAL__N_116DefaultAllocatorEE11parseNumberEb.exit: ; preds = %land.rhs.i, %while.body.i
  %8 = phi ptr [ %6, %land.rhs.i ], [ %1, %while.body.i ]
  %cmp.i3 = icmp eq ptr %incdec.ptr.i, %8
  %cmp.not.i5 = icmp eq ptr %8, %1
  %or.cond = or i1 %cmp.i3, %cmp.not.i5
  br i1 %or.cond, label %return, label %land.lhs.true.i6

land.lhs.true.i6:                                 ; preds = %_ZN4llvh16itanium_demangle2DbIN12_GLOBAL__N_116DefaultAllocatorEE11parseNumberEb.exit
  %9 = load i8, ptr %8, align 1
  %cmp4.i7 = icmp eq i8 %9, 95
  br i1 %cmp4.i7, label %return.sink.split, label %return

land.lhs.true.i14:                                ; preds = %land.lhs.true.i
  %10 = load i8, ptr %0, align 1
  %cmp4.i15 = icmp eq i8 %10, 118
  br i1 %cmp4.i15, label %if.then6, label %return

if.then6:                                         ; preds = %land.lhs.true.i14
  %incdec.ptr.i18 = getelementptr inbounds i8, ptr %0, i64 1
  store ptr %incdec.ptr.i18, ptr %this, align 16
  %cmp.not.i.i21.not = icmp eq ptr %incdec.ptr.i18, %1
  br i1 %cmp.not.i.i21.not, label %return, label %land.lhs.true.i.i41

land.lhs.true.i.i41:                              ; preds = %if.then6
  %11 = load i8, ptr %incdec.ptr.i18, align 1
  %cmp4.i.i42 = icmp eq i8 %11, 110
  br i1 %cmp4.i.i42, label %if.then.i.i43, label %if.end.i22

if.then.i.i43:                                    ; preds = %land.lhs.true.i.i41
  %incdec.ptr.i.i44 = getelementptr inbounds i8, ptr %0, i64 2
  store ptr %incdec.ptr.i.i44, ptr %this, align 16
  br label %if.end.i22

if.end.i22:                                       ; preds = %if.then.i.i43, %land.lhs.true.i.i41
  %12 = phi ptr [ %incdec.ptr.i.i44, %if.then.i.i43 ], [ %incdec.ptr.i18, %land.lhs.true.i.i41 ]
  %cmp.i24 = icmp eq ptr %1, %12
  br i1 %cmp.i24, label %return, label %lor.lhs.false.i25

lor.lhs.false.i25:                                ; preds = %if.end.i22
  %13 = load i8, ptr %12, align 1
  %conv.i26 = sext i8 %13 to i32
  %isdigittmp.i27 = add nsw i32 %conv.i26, -48
  %isdigit.i28 = icmp ult i32 %isdigittmp.i27, 10
  br i1 %isdigit.i28, label %land.rhs.i33, label %return

land.rhs.i33:                                     ; preds = %lor.lhs.false.i25, %while.body.i38
  %14 = phi ptr [ %incdec.ptr.i39, %while.body.i38 ], [ %12, %lor.lhs.false.i25 ]
  %15 = load i8, ptr %14, align 1
  %conv11.i35 = sext i8 %15 to i32
  %isdigittmp1.i36 = add nsw i32 %conv11.i35, -48
  %isdigit2.i37 = icmp ult i32 %isdigittmp1.i36, 10
  br i1 %isdigit2.i37, label %while.body.i38, label %_ZN4llvh16itanium_demangle2DbIN12_GLOBAL__N_116DefaultAllocatorEE11parseNumberEb.exit45

while.body.i38:                                   ; preds = %land.rhs.i33
  %incdec.ptr.i39 = getelementptr inbounds i8, ptr %14, i64 1
  store ptr %incdec.ptr.i39, ptr %this, align 16
  %cmp9.not.i40 = icmp eq ptr %1, %incdec.ptr.i39
  br i1 %cmp9.not.i40, label %_ZN4llvh16itanium_demangle2DbIN12_GLOBAL__N_116DefaultAllocatorEE11parseNumberEb.exit45, label %land.rhs.i33, !llvm.loop !8

_ZN4llvh16itanium_demangle2DbIN12_GLOBAL__N_116DefaultAllocatorEE11parseNumberEb.exit45: ; preds = %land.rhs.i33, %while.body.i38
  %16 = phi ptr [ %14, %land.rhs.i33 ], [ %1, %while.body.i38 ]
  %cmp.i47 = icmp eq ptr %incdec.ptr.i18, %16
  %cmp.not.i49 = icmp eq ptr %16, %1
  %or.cond113 = or i1 %cmp.i47, %cmp.not.i49
  br i1 %or.cond113, label %return, label %land.lhs.true.i50

land.lhs.true.i50:                                ; preds = %_ZN4llvh16itanium_demangle2DbIN12_GLOBAL__N_116DefaultAllocatorEE11parseNumberEb.exit45
  %17 = load i8, ptr %16, align 1
  %cmp4.i51 = icmp eq i8 %17, 95
  br i1 %cmp4.i51, label %lor.lhs.false11, label %return

lor.lhs.false11:                                  ; preds = %land.lhs.true.i50
  %incdec.ptr.i54 = getelementptr inbounds i8, ptr %16, i64 1
  store ptr %incdec.ptr.i54, ptr %this, align 16
  %cmp.not.i.i57.not = icmp eq ptr %incdec.ptr.i54, %1
  br i1 %cmp.not.i.i57.not, label %return, label %land.lhs.true.i.i77

land.lhs.true.i.i77:                              ; preds = %lor.lhs.false11
  %18 = load i8, ptr %incdec.ptr.i54, align 1
  %cmp4.i.i78 = icmp eq i8 %18, 110
  br i1 %cmp4.i.i78, label %if.then.i.i79, label %if.end.i58

if.then.i.i79:                                    ; preds = %land.lhs.true.i.i77
  %incdec.ptr.i.i80 = getelementptr inbounds i8, ptr %16, i64 2
  store ptr %incdec.ptr.i.i80, ptr %this, align 16
  br label %if.end.i58

if.end.i58:                                       ; preds = %if.then.i.i79, %land.lhs.true.i.i77
  %19 = phi ptr [ %incdec.ptr.i.i80, %if.then.i.i79 ], [ %incdec.ptr.i54, %land.lhs.true.i.i77 ]
  %cmp.i60 = icmp eq ptr %1, %19
  br i1 %cmp.i60, label %return, label %lor.lhs.false.i61

lor.lhs.false.i61:                                ; preds = %if.end.i58
  %20 = load i8, ptr %19, align 1
  %conv.i62 = sext i8 %20 to i32
  %isdigittmp.i63 = add nsw i32 %conv.i62, -48
  %isdigit.i64 = icmp ult i32 %isdigittmp.i63, 10
  br i1 %isdigit.i64, label %land.rhs.i69, label %return

land.rhs.i69:                                     ; preds = %lor.lhs.false.i61, %while.body.i74
  %21 = phi ptr [ %incdec.ptr.i75, %while.body.i74 ], [ %19, %lor.lhs.false.i61 ]
  %22 = load i8, ptr %21, align 1
  %conv11.i71 = sext i8 %22 to i32
  %isdigittmp1.i72 = add nsw i32 %conv11.i71, -48
  %isdigit2.i73 = icmp ult i32 %isdigittmp1.i72, 10
  br i1 %isdigit2.i73, label %while.body.i74, label %_ZN4llvh16itanium_demangle2DbIN12_GLOBAL__N_116DefaultAllocatorEE11parseNumberEb.exit81

while.body.i74:                                   ; preds = %land.rhs.i69
  %incdec.ptr.i75 = getelementptr inbounds i8, ptr %21, i64 1
  store ptr %incdec.ptr.i75, ptr %this, align 16
  %cmp9.not.i76 = icmp eq ptr %1, %incdec.ptr.i75
  br i1 %cmp9.not.i76, label %_ZN4llvh16itanium_demangle2DbIN12_GLOBAL__N_116DefaultAllocatorEE11parseNumberEb.exit81, label %land.rhs.i69, !llvm.loop !8

_ZN4llvh16itanium_demangle2DbIN12_GLOBAL__N_116DefaultAllocatorEE11parseNumberEb.exit81: ; preds = %land.rhs.i69, %while.body.i74
  %23 = phi ptr [ %21, %land.rhs.i69 ], [ %1, %while.body.i74 ]
  %cmp.i83 = icmp eq ptr %incdec.ptr.i54, %23
  %cmp.not.i85 = icmp eq ptr %23, %1
  %or.cond114 = or i1 %cmp.i83, %cmp.not.i85
  br i1 %or.cond114, label %return, label %land.lhs.true.i86

land.lhs.true.i86:                                ; preds = %_ZN4llvh16itanium_demangle2DbIN12_GLOBAL__N_116DefaultAllocatorEE11parseNumberEb.exit81
  %24 = load i8, ptr %23, align 1
  %cmp4.i87 = icmp eq i8 %24, 95
  br i1 %cmp4.i87, label %return.sink.split, label %return

return.sink.split:                                ; preds = %land.lhs.true.i86, %land.lhs.true.i6
  %.sink = phi ptr [ %8, %land.lhs.true.i6 ], [ %23, %land.lhs.true.i86 ]
  %incdec.ptr.i90 = getelementptr inbounds i8, ptr %.sink, i64 1
  store ptr %incdec.ptr.i90, ptr %this, align 16
  br label %return

return:                                           ; preds = %return.sink.split, %lor.lhs.false11, %if.then6, %if.then, %entry, %land.lhs.true.i86, %land.lhs.true.i6, %if.end.i58, %lor.lhs.false.i61, %land.lhs.true.i50, %if.end.i22, %lor.lhs.false.i25, %land.lhs.true.i14, %if.end.i, %lor.lhs.false.i, %_ZN4llvh16itanium_demangle2DbIN12_GLOBAL__N_116DefaultAllocatorEE11parseNumberEb.exit45, %_ZN4llvh16itanium_demangle2DbIN12_GLOBAL__N_116DefaultAllocatorEE11parseNumberEb.exit81, %_ZN4llvh16itanium_demangle2DbIN12_GLOBAL__N_116DefaultAllocatorEE11parseNumberEb.exit
  %retval.0 = phi i1 [ true, %_ZN4llvh16itanium_demangle2DbIN12_GLOBAL__N_116DefaultAllocatorEE11parseNumberEb.exit ], [ true, %_ZN4llvh16itanium_demangle2DbIN12_GLOBAL__N_116DefaultAllocatorEE11parseNumberEb.exit81 ], [ true, %_ZN4llvh16itanium_demangle2DbIN12_GLOBAL__N_116DefaultAllocatorEE11parseNumberEb.exit45 ], [ true, %lor.lhs.false.i ], [ true, %if.end.i ], [ true, %land.lhs.true.i14 ], [ true, %lor.lhs.false.i25 ], [ true, %if.end.i22 ], [ true, %land.lhs.true.i50 ], [ true, %lor.lhs.false.i61 ], [ true, %if.end.i58 ], [ true, %land.lhs.true.i6 ], [ true, %land.lhs.true.i86 ], [ true, %entry ], [ true, %if.then ], [ true, %if.then6 ], [ true, %lor.lhs.false11 ], [ false, %return.sink.split ]
  ret i1 %retval.0
}